; Function Attrs: mustprogress nounwind uwtable
define dso_local void @_ZN4node4quic8Endpoint29IncrementSocketAddressCounterERKNS_13SocketAddressE(ptr noundef nonnull align 8 dereferenceable(1520) %this, ptr noundef nonnull align 8 dereferenceable(136) %addr) local_unnamed_addr #3 align 2 {
entry:
  %addrLRU_ = getelementptr inbounds i8, ptr %this, i64 1416
  %call = tail call noundef ptr @_ZN4node16SocketAddressLRUINS_4quic8Endpoint23SocketAddressInfoTraitsEE6UpsertERKNS_13SocketAddressE(ptr noundef nonnull align 8 dereferenceable(96) %addrLRU_, ptr noundef nonnull align 8 dereferenceable(136) %addr)
  %0 = load i64, ptr %call, align 8
  %inc = add i64 %0, 1
  store i64 %inc, ptr %call, align 8
  ret void
}